target datalayout = "e-m:e-p270:32:32-p271:32:32-p272:64:64-i64:64-i128:128-f80:128-n8:16:32:64-S128"
target triple = "x86_64-pc-linux-gnu"

%struct.strbuf = type { i64, i64, ptr }
%struct.fsck_ref_report = type { ptr, ptr, ptr }

@__const.fsck_refs_error_function.sb = private unnamed_addr constant %struct.strbuf { i64 0, i64 0, ptr @strbuf_slopbuf }, align 8
@.str.27 = private unnamed_addr constant [9 x i8] c" -> (%s)\00", align 1
@.str.28 = private unnamed_addr constant [7 x i8] c"%s: %s\00", align 1

; Function Attrs: inlinehint nounwind uwtable
define internal i32 @const_error() #2 {
  ret i32 -1
}

; Function Attrs: inlinehint nounwind uwtable
define internal void @strbuf_addstr(ptr noundef %0, ptr noundef %1) #2 {
  %3 = alloca ptr, align 8
  %4 = alloca ptr, align 8
  store ptr %0, ptr %3, align 8, !tbaa !83
  store ptr %1, ptr %4, align 8, !tbaa !9
  %5 = load ptr, ptr %3, align 8, !tbaa !83
  %6 = load ptr, ptr %4, align 8, !tbaa !9
  %7 = load ptr, ptr %4, align 8, !tbaa !9
  %8 = call i64 @strlen(ptr noundef %7) #12
  call void @strbuf_add(ptr noundef %5, ptr noundef %6, i64 noundef %8)
  ret void
}

; Function Attrs: nounwind uwtable
define dso_local i32 @fsck_refs_error_function(ptr noundef %0, ptr noundef %1, i32 noundef %2, i32 noundef %3, ptr noundef %4) #0 {
  %6 = alloca ptr, align 8
  %7 = alloca ptr, align 8
  %8 = alloca i32, align 4
  %9 = alloca i32, align 4
  %10 = alloca ptr, align 8
  %11 = alloca ptr, align 8
  %12 = alloca %struct.strbuf, align 8
  %13 = alloca i32, align 4
  store ptr %0, ptr %6, align 8, !tbaa !24
  store ptr %1, ptr %7, align 8, !tbaa !33
  store i32 %2, ptr %8, align 4, !tbaa !11
  store i32 %3, ptr %9, align 4, !tbaa !11
  store ptr %4, ptr %10, align 8, !tbaa !9
  call void @llvm.lifetime.start.p0(i64 8, ptr %11) #11
  %14 = load ptr, ptr %7, align 8, !tbaa !33
  store ptr %14, ptr %11, align 8, !tbaa !61
  call void @llvm.lifetime.start.p0(i64 24, ptr %12) #11
  call void @llvm.memcpy.p0.p0.i64(ptr align 8 %12, ptr align 8 @__const.fsck_refs_error_function.sb, i64 24, i1 false)
  call void @llvm.lifetime.start.p0(i64 4, ptr %13) #11
  store i32 0, ptr %13, align 4, !tbaa !11
  %15 = load ptr, ptr %11, align 8, !tbaa !61
  %16 = getelementptr inbounds nuw %struct.fsck_ref_report, ptr %15, i32 0, i32 0
  %17 = load ptr, ptr %16, align 8, !tbaa !142
  call void @strbuf_addstr(ptr noundef %12, ptr noundef %17)
  %18 = load ptr, ptr %11, align 8, !tbaa !61
  %19 = getelementptr inbounds nuw %struct.fsck_ref_report, ptr %18, i32 0, i32 1
  %20 = load ptr, ptr %19, align 8, !tbaa !144
  %21 = icmp ne ptr %20, null
  br i1 %21, label %22, label %27

22:                                               ; preds = %5
  %23 = load ptr, ptr %11, align 8, !tbaa !61
  %24 = getelementptr inbounds nuw %struct.fsck_ref_report, ptr %23, i32 0, i32 1
  %25 = load ptr, ptr %24, align 8, !tbaa !144
  %26 = call ptr @oid_to_hex(ptr noundef %25)
  call void (ptr, ptr, ...) @strbuf_addf(ptr noundef %12, ptr noundef @.str.27, ptr noundef %26)
  br label %37

27:                                               ; preds = %5
  %28 = load ptr, ptr %11, align 8, !tbaa !61
  %29 = getelementptr inbounds nuw %struct.fsck_ref_report, ptr %28, i32 0, i32 2
  %30 = load ptr, ptr %29, align 8, !tbaa !145
  %31 = icmp ne ptr %30, null
  br i1 %31, label %32, label %36

32:                                               ; preds = %27
  %33 = load ptr, ptr %11, align 8, !tbaa !61
  %34 = getelementptr inbounds nuw %struct.fsck_ref_report, ptr %33, i32 0, i32 2
  %35 = load ptr, ptr %34, align 8, !tbaa !145
  call void (ptr, ptr, ...) @strbuf_addf(ptr noundef %12, ptr noundef @.str.27, ptr noundef %35)
  br label %36

36:                                               ; preds = %32, %27
  br label %37

37:                                               ; preds = %36, %22
  %38 = load i32, ptr %8, align 4, !tbaa !11
  %39 = icmp eq i32 %38, 4
  br i1 %39, label %40, label %44

40:                                               ; preds = %37
  %41 = getelementptr inbounds nuw %struct.strbuf, ptr %12, i32 0, i32 2
  %42 = load ptr, ptr %41, align 8, !tbaa !66
  %43 = load ptr, ptr %10, align 8, !tbaa !9
  call void (ptr, ...) @warning(ptr noundef @.str.28, ptr noundef %42, ptr noundef %43)
  br label %50

44:                                               ; preds = %37
  %45 = getelementptr inbounds nuw %struct.strbuf, ptr %12, i32 0, i32 2
  %46 = load ptr, ptr %45, align 8, !tbaa !66
  %47 = load ptr, ptr %10, align 8, !tbaa !9
  %48 = call i32 (ptr, ...) @error(ptr noundef @.str.28, ptr noundef %46, ptr noundef %47)
  %49 = call i32 @const_error()
  store i32 %49, ptr %13, align 4, !tbaa !11
  br label %50

50:                                               ; preds = %44, %40
  call void @strbuf_release(ptr noundef %12)
  %51 = load i32, ptr %13, align 4, !tbaa !11
  call void @llvm.lifetime.end.p0(i64 4, ptr %13) #11
  call void @llvm.lifetime.end.p0(i64 24, ptr %12) #11
  call void @llvm.lifetime.end.p0(i64 8, ptr %11) #11
  ret i32 %51
}