; Function Attrs: nounwind uwtable
define dso_local range(i32 -1, 1) i32 @fsck_refs_error_function(ptr noundef readnone captures(none) %0, ptr noundef readonly captures(none) %1, i32 noundef %2, i32 noundef %3, ptr noundef %4) local_unnamed_addr #0 {
  %6 = alloca %struct.strbuf, align 8
  call void @llvm.lifetime.start.p0(i64 24, ptr nonnull %6) #16
  call void @llvm.memcpy.p0.p0.i64(ptr noundef nonnull align 8 dereferenceable(24) %6, ptr noundef nonnull align 8 dereferenceable(24) @__const.fsck_vreport.sb, i64 24, i1 false)
  %7 = load ptr, ptr %1, align 8, !tbaa !119
  %8 = tail call i64 @strlen(ptr noundef nonnull dereferenceable(1) %7) #17
  call void @strbuf_add(ptr noundef nonnull %6, ptr noundef nonnull %7, i64 noundef %8) #16
  %9 = getelementptr inbounds nuw i8, ptr %1, i64 8
  %10 = load ptr, ptr %9, align 8, !tbaa !121
  %.not = icmp eq ptr %10, null
  br i1 %.not, label %13, label %11

11:                                               ; preds = %5
  %12 = call ptr @oid_to_hex(ptr noundef nonnull %10) #16
  br label %.sink.split

13:                                               ; preds = %5
  %14 = getelementptr inbounds nuw i8, ptr %1, i64 16
  %15 = load ptr, ptr %14, align 8, !tbaa !122
  %.not11 = icmp eq ptr %15, null
  br i1 %.not11, label %16, label %.sink.split

.sink.split:                                      ; preds = %13, %11
  %.sink = phi ptr [ %12, %11 ], [ %15, %13 ]
  call void (ptr, ptr, ...) @strbuf_addf(ptr noundef nonnull %6, ptr noundef nonnull @.str.27, ptr noundef %.sink) #16
  br label %16

16:                                               ; preds = %.sink.split, %13
  %17 = icmp eq i32 %2, 4
  %18 = getelementptr inbounds nuw i8, ptr %6, i64 16
  %19 = load ptr, ptr %18, align 8, !tbaa !55
  br i1 %17, label %20, label %21

20:                                               ; preds = %16
  call void (ptr, ...) @warning(ptr noundef nonnull @.str.28, ptr noundef %19, ptr noundef %4) #16
  br label %23

21:                                               ; preds = %16
  %22 = call i32 (ptr, ...) @error(ptr noundef nonnull @.str.28, ptr noundef %19, ptr noundef %4) #16
  br label %23

23:                                               ; preds = %21, %20
  %.0 = phi i32 [ 0, %20 ], [ -1, %21 ]
  call void @strbuf_release(ptr noundef nonnull %6) #16
  call void @llvm.lifetime.end.p0(i64 24, ptr nonnull %6) #16
  ret i32 %.0
}